target datalayout = "e-m:e-p270:32:32-p271:32:32-p272:64:64-i64:64-i128:128-f80:128-n8:16:32:64-S128"
target triple = "x86_64-pc-linux-gnu"

%struct.Vec_Str_t_ = type { i32, i32, ptr }
%struct.Vec_Int_t_ = type { i32, i32, ptr }
%struct.Sfm_Ntk_t_ = type { ptr, i32, i32, i32, i32, i32, ptr, ptr, ptr, %struct.Vec_Wec_t_, ptr, ptr, %struct.Vec_Wec_t_, %struct.Vec_Int_t_, %struct.Vec_Int_t_, %struct.Vec_Int_t_, %struct.Vec_Int_t_, %struct.Vec_Int_t_, ptr, ptr, %struct.Vec_Int_t_, %struct.Vec_Int_t_, i32, i32, i32, ptr, ptr, ptr, ptr, ptr, i32, i32, i32, i32, i32, i32, i32, i32, ptr, ptr, ptr, ptr, ptr, ptr, ptr, ptr, [12 x [64 x i64]], [12 x ptr], [64 x i64], [64 x i64], i32, i32, i32, i32, i32, i32, i32, i32, i32, i64, i64, i64, i64, i64, i64 }
%struct.Vec_Wec_t_ = type { i32, i32, ptr }
%struct.Vec_Wrd_t_ = type { i32, i32, ptr }

; Function Attrs: inlinehint nounwind uwtable
define internal i32 @Vec_IntSize(ptr noundef %0) #2 {
  %2 = alloca ptr, align 8
  store ptr %0, ptr %2, align 8, !tbaa !21
  %3 = load ptr, ptr %2, align 8, !tbaa !21
  %4 = getelementptr inbounds nuw %struct.Vec_Int_t_, ptr %3, i32 0, i32 1
  %5 = load i32, ptr %4, align 4, !tbaa !31
  ret i32 %5
}

; Function Attrs: inlinehint nounwind uwtable
define internal ptr @Sfm_ObjFiArray(ptr noundef %0, i32 noundef %1) #2 {
  %3 = alloca ptr, align 8
  %4 = alloca i32, align 4
  store ptr %0, ptr %3, align 8, !tbaa !35
  store i32 %1, ptr %4, align 4, !tbaa !8
  %5 = load ptr, ptr %3, align 8, !tbaa !35
  %6 = getelementptr inbounds nuw %struct.Sfm_Ntk_t_, ptr %5, i32 0, i32 9
  %7 = load i32, ptr %4, align 4, !tbaa !8
  %8 = call ptr @Vec_WecEntry(ptr noundef %6, i32 noundef %7)
  ret ptr %8
}

; Function Attrs: inlinehint nounwind uwtable
define internal ptr @Vec_WecAlloc(i32 noundef %0) #2 {
  %2 = alloca i32, align 4
  %3 = alloca ptr, align 8
  store i32 %0, ptr %2, align 4, !tbaa !8
  call void @llvm.lifetime.start.p0(i64 8, ptr %3) #10
  %4 = call noalias ptr @malloc(i64 noundef 16) #11
  store ptr %4, ptr %3, align 8, !tbaa !44
  %5 = load i32, ptr %2, align 4, !tbaa !8
  %6 = icmp sgt i32 %5, 0
  br i1 %6, label %7, label %11

7:                                                ; preds = %1
  %8 = load i32, ptr %2, align 4, !tbaa !8
  %9 = icmp slt i32 %8, 8
  br i1 %9, label %10, label %11

10:                                               ; preds = %7
  store i32 8, ptr %2, align 4, !tbaa !8
  br label %11

11:                                               ; preds = %10, %7, %1
  %12 = load ptr, ptr %3, align 8, !tbaa !44
  %13 = getelementptr inbounds nuw %struct.Vec_Wec_t_, ptr %12, i32 0, i32 1
  store i32 0, ptr %13, align 4, !tbaa !52
  %14 = load i32, ptr %2, align 4, !tbaa !8
  %15 = load ptr, ptr %3, align 8, !tbaa !44
  %16 = getelementptr inbounds nuw %struct.Vec_Wec_t_, ptr %15, i32 0, i32 0
  store i32 %14, ptr %16, align 8, !tbaa !60
  %17 = load ptr, ptr %3, align 8, !tbaa !44
  %18 = getelementptr inbounds nuw %struct.Vec_Wec_t_, ptr %17, i32 0, i32 0
  %19 = load i32, ptr %18, align 8, !tbaa !60
  %20 = icmp ne i32 %19, 0
  br i1 %20, label %21, label %27

21:                                               ; preds = %11
  %22 = load ptr, ptr %3, align 8, !tbaa !44
  %23 = getelementptr inbounds nuw %struct.Vec_Wec_t_, ptr %22, i32 0, i32 0
  %24 = load i32, ptr %23, align 8, !tbaa !60
  %25 = sext i32 %24 to i64
  %26 = call noalias ptr @calloc(i64 noundef %25, i64 noundef 16) #13
  br label %28

27:                                               ; preds = %11
  br label %28

28:                                               ; preds = %27, %21
  %29 = phi ptr [ %26, %21 ], [ null, %27 ]
  %30 = load ptr, ptr %3, align 8, !tbaa !44
  %31 = getelementptr inbounds nuw %struct.Vec_Wec_t_, ptr %30, i32 0, i32 2
  store ptr %29, ptr %31, align 8, !tbaa !57
  %32 = load ptr, ptr %3, align 8, !tbaa !44
  call void @llvm.lifetime.end.p0(i64 8, ptr %3) #10
  ret ptr %32
}

; Function Attrs: inlinehint nounwind uwtable
define internal void @Vec_StrFree(ptr noundef %0) #2 {
  %2 = alloca ptr, align 8
  store ptr %0, ptr %2, align 8, !tbaa !3
  %3 = load ptr, ptr %2, align 8, !tbaa !3
  %4 = getelementptr inbounds nuw %struct.Vec_Str_t_, ptr %3, i32 0, i32 2
  %5 = load ptr, ptr %4, align 8, !tbaa !16
  %6 = icmp ne ptr %5, null
  br i1 %6, label %7, label %13

7:                                                ; preds = %1
  %8 = load ptr, ptr %2, align 8, !tbaa !3
  %9 = getelementptr inbounds nuw %struct.Vec_Str_t_, ptr %8, i32 0, i32 2
  %10 = load ptr, ptr %9, align 8, !tbaa !16
  call void @free(ptr noundef %10) #10
  %11 = load ptr, ptr %2, align 8, !tbaa !3
  %12 = getelementptr inbounds nuw %struct.Vec_Str_t_, ptr %11, i32 0, i32 2
  store ptr null, ptr %12, align 8, !tbaa !16
  br label %14

13:                                               ; preds = %1
  br label %14

14:                                               ; preds = %13, %7
  %15 = load ptr, ptr %2, align 8, !tbaa !3
  %16 = icmp ne ptr %15, null
  br i1 %16, label %17, label %19

17:                                               ; preds = %14
  %18 = load ptr, ptr %2, align 8, !tbaa !3
  call void @free(ptr noundef %18) #10
  store ptr null, ptr %2, align 8, !tbaa !3
  br label %20

19:                                               ; preds = %14
  br label %20

20:                                               ; preds = %19, %17
  ret void
}

; Function Attrs: inlinehint nounwind uwtable
define internal ptr @Vec_StrArray(ptr noundef %0) #2 {
  %2 = alloca ptr, align 8
  store ptr %0, ptr %2, align 8, !tbaa !3
  %3 = load ptr, ptr %2, align 8, !tbaa !3
  %4 = getelementptr inbounds nuw %struct.Vec_Str_t_, ptr %3, i32 0, i32 2
  %5 = load ptr, ptr %4, align 8, !tbaa !16
  ret ptr %5
}

; Function Attrs: inlinehint nounwind uwtable
define internal void @Vec_StrGrow(ptr noundef %0, i32 noundef %1) #2 {
  %3 = alloca ptr, align 8
  %4 = alloca i32, align 4
  store ptr %0, ptr %3, align 8, !tbaa !3
  store i32 %1, ptr %4, align 4, !tbaa !8
  %5 = load ptr, ptr %3, align 8, !tbaa !3
  %6 = getelementptr inbounds nuw %struct.Vec_Str_t_, ptr %5, i32 0, i32 0
  %7 = load i32, ptr %6, align 8, !tbaa !30
  %8 = load i32, ptr %4, align 4, !tbaa !8
  %9 = icmp sge i32 %7, %8
  br i1 %9, label %10, label %11

10:                                               ; preds = %2
  br label %36

11:                                               ; preds = %2
  %12 = load ptr, ptr %3, align 8, !tbaa !3
  %13 = getelementptr inbounds nuw %struct.Vec_Str_t_, ptr %12, i32 0, i32 2
  %14 = load ptr, ptr %13, align 8, !tbaa !16
  %15 = icmp ne ptr %14, null
  br i1 %15, label %16, label %24

16:                                               ; preds = %11
  %17 = load ptr, ptr %3, align 8, !tbaa !3
  %18 = getelementptr inbounds nuw %struct.Vec_Str_t_, ptr %17, i32 0, i32 2
  %19 = load ptr, ptr %18, align 8, !tbaa !16
  %20 = load i32, ptr %4, align 4, !tbaa !8
  %21 = sext i32 %20 to i64
  %22 = mul i64 1, %21
  %23 = call ptr @realloc(ptr noundef %19, i64 noundef %22) #12
  br label %29

24:                                               ; preds = %11
  %25 = load i32, ptr %4, align 4, !tbaa !8
  %26 = sext i32 %25 to i64
  %27 = mul i64 1, %26
  %28 = call noalias ptr @malloc(i64 noundef %27) #11
  br label %29

29:                                               ; preds = %24, %16
  %30 = phi ptr [ %23, %16 ], [ %28, %24 ]
  %31 = load ptr, ptr %3, align 8, !tbaa !3
  %32 = getelementptr inbounds nuw %struct.Vec_Str_t_, ptr %31, i32 0, i32 2
  store ptr %30, ptr %32, align 8, !tbaa !16
  %33 = load i32, ptr %4, align 4, !tbaa !8
  %34 = load ptr, ptr %3, align 8, !tbaa !3
  %35 = getelementptr inbounds nuw %struct.Vec_Str_t_, ptr %34, i32 0, i32 0
  store i32 %33, ptr %35, align 8, !tbaa !30
  br label %36

36:                                               ; preds = %29, %10
  ret void
}

; Function Attrs: inlinehint nounwind uwtable
define internal i32 @Vec_StrSize(ptr noundef %0) #2 {
  %2 = alloca ptr, align 8
  store ptr %0, ptr %2, align 8, !tbaa !3
  %3 = load ptr, ptr %2, align 8, !tbaa !3
  %4 = getelementptr inbounds nuw %struct.Vec_Str_t_, ptr %3, i32 0, i32 1
  %5 = load i32, ptr %4, align 4, !tbaa !13
  ret i32 %5
}

; Function Attrs: inlinehint nounwind uwtable
define internal ptr @Vec_WecEntry(ptr noundef %0, i32 noundef %1) #2 {
  %3 = alloca ptr, align 8
  %4 = alloca i32, align 4
  store ptr %0, ptr %3, align 8, !tbaa !44
  store i32 %1, ptr %4, align 4, !tbaa !8
  %5 = load ptr, ptr %3, align 8, !tbaa !44
  %6 = getelementptr inbounds nuw %struct.Vec_Wec_t_, ptr %5, i32 0, i32 2
  %7 = load ptr, ptr %6, align 8, !tbaa !57
  %8 = load i32, ptr %4, align 4, !tbaa !8
  %9 = sext i32 %8 to i64
  %10 = getelementptr inbounds %struct.Vec_Int_t_, ptr %7, i64 %9
  ret ptr %10
}

; Function Attrs: inlinehint nounwind uwtable
define internal i32 @Sfm_ObjFaninNum(ptr noundef %0, i32 noundef %1) #2 {
  %3 = alloca ptr, align 8
  %4 = alloca i32, align 4
  store ptr %0, ptr %3, align 8, !tbaa !35
  store i32 %1, ptr %4, align 4, !tbaa !8
  %5 = load ptr, ptr %3, align 8, !tbaa !35
  %6 = load i32, ptr %4, align 4, !tbaa !8
  %7 = call ptr @Sfm_ObjFiArray(ptr noundef %5, i32 noundef %6)
  %8 = call i32 @Vec_IntSize(ptr noundef %7)
  ret i32 %8
}

; Function Attrs: inlinehint nounwind uwtable
define internal ptr @Vec_WrdEntryP(ptr noundef %0, i32 noundef %1) #2 {
  %3 = alloca ptr, align 8
  %4 = alloca i32, align 4
  store ptr %0, ptr %3, align 8, !tbaa !53
  store i32 %1, ptr %4, align 4, !tbaa !8
  %5 = load ptr, ptr %3, align 8, !tbaa !53
  %6 = getelementptr inbounds nuw %struct.Vec_Wrd_t_, ptr %5, i32 0, i32 2
  %7 = load ptr, ptr %6, align 8, !tbaa !56
  %8 = load i32, ptr %4, align 4, !tbaa !8
  %9 = sext i32 %8 to i64
  %10 = getelementptr inbounds i64, ptr %7, i64 %9
  ret ptr %10
}

; Function Attrs: inlinehint nounwind uwtable
define internal i32 @Vec_IntEntry(ptr noundef %0, i32 noundef %1) #2 {
  %3 = alloca ptr, align 8
  %4 = alloca i32, align 4
  store ptr %0, ptr %3, align 8, !tbaa !21
  store i32 %1, ptr %4, align 4, !tbaa !8
  %5 = load ptr, ptr %3, align 8, !tbaa !21
  %6 = getelementptr inbounds nuw %struct.Vec_Int_t_, ptr %5, i32 0, i32 2
  %7 = load ptr, ptr %6, align 8, !tbaa !34
  %8 = load i32, ptr %4, align 4, !tbaa !8
  %9 = sext i32 %8 to i64
  %10 = getelementptr inbounds i32, ptr %7, i64 %9
  %11 = load i32, ptr %10, align 4, !tbaa !8
  ret i32 %11
}

; Function Attrs: inlinehint nounwind uwtable
define internal i64 @Vec_WrdEntry(ptr noundef %0, i32 noundef %1) #2 {
  %3 = alloca ptr, align 8
  %4 = alloca i32, align 4
  store ptr %0, ptr %3, align 8, !tbaa !53
  store i32 %1, ptr %4, align 4, !tbaa !8
  %5 = load ptr, ptr %3, align 8, !tbaa !53
  %6 = getelementptr inbounds nuw %struct.Vec_Wrd_t_, ptr %5, i32 0, i32 2
  %7 = load ptr, ptr %6, align 8, !tbaa !56
  %8 = load i32, ptr %4, align 4, !tbaa !8
  %9 = sext i32 %8 to i64
  %10 = getelementptr inbounds i64, ptr %7, i64 %9
  %11 = load i64, ptr %10, align 8, !tbaa !17
  ret i64 %11
}

; Function Attrs: inlinehint nounwind uwtable
define internal i32 @Vec_WrdSize(ptr noundef %0) #2 {
  %2 = alloca ptr, align 8
  store ptr %0, ptr %2, align 8, !tbaa !53
  %3 = load ptr, ptr %2, align 8, !tbaa !53
  %4 = getelementptr inbounds nuw %struct.Vec_Wrd_t_, ptr %3, i32 0, i32 1
  %5 = load i32, ptr %4, align 4, !tbaa !54
  ret i32 %5
}

; Function Attrs: inlinehint nounwind uwtable
define internal ptr @Vec_WecStart(i32 noundef %0) #2 {
  %2 = alloca i32, align 4
  %3 = alloca ptr, align 8
  store i32 %0, ptr %2, align 4, !tbaa !8
  call void @llvm.lifetime.start.p0(i64 8, ptr %3) #10
  %4 = load i32, ptr %2, align 4, !tbaa !8
  %5 = call ptr @Vec_WecAlloc(i32 noundef %4)
  store ptr %5, ptr %3, align 8, !tbaa !44
  %6 = load i32, ptr %2, align 4, !tbaa !8
  %7 = load ptr, ptr %3, align 8, !tbaa !44
  %8 = getelementptr inbounds nuw %struct.Vec_Wec_t_, ptr %7, i32 0, i32 1
  store i32 %6, ptr %8, align 4, !tbaa !52
  %9 = load ptr, ptr %3, align 8, !tbaa !44
  call void @llvm.lifetime.end.p0(i64 8, ptr %3) #10
  ret ptr %9
}

; Function Attrs: inlinehint nounwind uwtable
define internal ptr @Vec_StrAlloc(i32 noundef %0) #2 {
  %2 = alloca i32, align 4
  %3 = alloca ptr, align 8
  store i32 %0, ptr %2, align 4, !tbaa !8
  call void @llvm.lifetime.start.p0(i64 8, ptr %3) #10
  %4 = call noalias ptr @malloc(i64 noundef 16) #11
  store ptr %4, ptr %3, align 8, !tbaa !3
  %5 = load i32, ptr %2, align 4, !tbaa !8
  %6 = icmp sgt i32 %5, 0
  br i1 %6, label %7, label %11

7:                                                ; preds = %1
  %8 = load i32, ptr %2, align 4, !tbaa !8
  %9 = icmp slt i32 %8, 16
  br i1 %9, label %10, label %11

10:                                               ; preds = %7
  store i32 16, ptr %2, align 4, !tbaa !8
  br label %11

11:                                               ; preds = %10, %7, %1
  %12 = load ptr, ptr %3, align 8, !tbaa !3
  %13 = getelementptr inbounds nuw %struct.Vec_Str_t_, ptr %12, i32 0, i32 1
  store i32 0, ptr %13, align 4, !tbaa !13
  %14 = load i32, ptr %2, align 4, !tbaa !8
  %15 = load ptr, ptr %3, align 8, !tbaa !3
  %16 = getelementptr inbounds nuw %struct.Vec_Str_t_, ptr %15, i32 0, i32 0
  store i32 %14, ptr %16, align 8, !tbaa !30
  %17 = load ptr, ptr %3, align 8, !tbaa !3
  %18 = getelementptr inbounds nuw %struct.Vec_Str_t_, ptr %17, i32 0, i32 0
  %19 = load i32, ptr %18, align 8, !tbaa !30
  %20 = icmp ne i32 %19, 0
  br i1 %20, label %21, label %28

21:                                               ; preds = %11
  %22 = load ptr, ptr %3, align 8, !tbaa !3
  %23 = getelementptr inbounds nuw %struct.Vec_Str_t_, ptr %22, i32 0, i32 0
  %24 = load i32, ptr %23, align 8, !tbaa !30
  %25 = sext i32 %24 to i64
  %26 = mul i64 1, %25
  %27 = call noalias ptr @malloc(i64 noundef %26) #11
  br label %29

28:                                               ; preds = %11
  br label %29

29:                                               ; preds = %28, %21
  %30 = phi ptr [ %27, %21 ], [ null, %28 ]
  %31 = load ptr, ptr %3, align 8, !tbaa !3
  %32 = getelementptr inbounds nuw %struct.Vec_Str_t_, ptr %31, i32 0, i32 2
  store ptr %30, ptr %32, align 8, !tbaa !16
  %33 = load ptr, ptr %3, align 8, !tbaa !3
  call void @llvm.lifetime.end.p0(i64 8, ptr %3) #10
  ret ptr %33
}

; Function Attrs: nounwind uwtable
define ptr @Sfm_CreateCnf(ptr noundef %0) #0 {
  %2 = alloca ptr, align 8
  %3 = alloca ptr, align 8
  %4 = alloca ptr, align 8
  %5 = alloca ptr, align 8
  %6 = alloca i64, align 8
  %7 = alloca i32, align 4
  %8 = alloca i32, align 4
  %9 = alloca i32, align 4
  %10 = alloca ptr, align 8
  store ptr %0, ptr %2, align 8, !tbaa !35
  call void @llvm.lifetime.start.p0(i64 8, ptr %3) #10
  call void @llvm.lifetime.start.p0(i64 8, ptr %4) #10
  call void @llvm.lifetime.start.p0(i64 8, ptr %5) #10
  call void @llvm.lifetime.start.p0(i64 8, ptr %6) #10
  call void @llvm.lifetime.start.p0(i64 4, ptr %7) #10
  call void @llvm.lifetime.start.p0(i64 4, ptr %8) #10
  %11 = call ptr @Vec_StrAlloc(i32 noundef 100)
  store ptr %11, ptr %4, align 8, !tbaa !3
  %12 = load ptr, ptr %2, align 8, !tbaa !35
  %13 = getelementptr inbounds nuw %struct.Sfm_Ntk_t_, ptr %12, i32 0, i32 4
  %14 = load i32, ptr %13, align 4, !tbaa !37
  %15 = call ptr @Vec_WecStart(i32 noundef %14)
  store ptr %15, ptr %3, align 8, !tbaa !44
  %16 = load ptr, ptr %2, align 8, !tbaa !35
  %17 = getelementptr inbounds nuw %struct.Sfm_Ntk_t_, ptr %16, i32 0, i32 1
  %18 = load i32, ptr %17, align 8, !tbaa !45
  store i32 %18, ptr %7, align 4, !tbaa !8
  br label %19

19:                                               ; preds = %85, %1
  %20 = load i32, ptr %7, align 4, !tbaa !8
  %21 = load ptr, ptr %2, align 8, !tbaa !35
  %22 = getelementptr inbounds nuw %struct.Sfm_Ntk_t_, ptr %21, i32 0, i32 8
  %23 = load ptr, ptr %22, align 8, !tbaa !46
  %24 = call i32 @Vec_WrdSize(ptr noundef %23)
  %25 = load ptr, ptr %2, align 8, !tbaa !35
  %26 = getelementptr inbounds nuw %struct.Sfm_Ntk_t_, ptr %25, i32 0, i32 2
  %27 = load i32, ptr %26, align 4, !tbaa !47
  %28 = sub nsw i32 %24, %27
  %29 = icmp slt i32 %20, %28
  br i1 %29, label %30, label %36

30:                                               ; preds = %19
  %31 = load ptr, ptr %2, align 8, !tbaa !35
  %32 = getelementptr inbounds nuw %struct.Sfm_Ntk_t_, ptr %31, i32 0, i32 8
  %33 = load ptr, ptr %32, align 8, !tbaa !46
  %34 = load i32, ptr %7, align 4, !tbaa !8
  %35 = call i64 @Vec_WrdEntry(ptr noundef %33, i32 noundef %34)
  store i64 %35, ptr %6, align 8, !tbaa !17
  br label %36

36:                                               ; preds = %30, %19
  %37 = phi i1 [ false, %19 ], [ true, %30 ]
  br i1 %37, label %38, label %88

38:                                               ; preds = %36
  call void @llvm.lifetime.start.p0(i64 4, ptr %9) #10
  %39 = load ptr, ptr %2, align 8, !tbaa !35
  %40 = getelementptr inbounds nuw %struct.Sfm_Ntk_t_, ptr %39, i32 0, i32 10
  %41 = load ptr, ptr %40, align 8, !tbaa !48
  %42 = load i32, ptr %7, align 4, !tbaa !8
  %43 = call i32 @Vec_IntEntry(ptr noundef %41, i32 noundef %42)
  store i32 %43, ptr %9, align 4, !tbaa !8
  call void @llvm.lifetime.start.p0(i64 8, ptr %10) #10
  %44 = load ptr, ptr %2, align 8, !tbaa !35
  %45 = getelementptr inbounds nuw %struct.Sfm_Ntk_t_, ptr %44, i32 0, i32 11
  %46 = load ptr, ptr %45, align 8, !tbaa !49
  %47 = call i32 @Vec_WrdSize(ptr noundef %46)
  %48 = icmp ne i32 %47, 0
  br i1 %48, label %49, label %55

49:                                               ; preds = %38
  %50 = load ptr, ptr %2, align 8, !tbaa !35
  %51 = getelementptr inbounds nuw %struct.Sfm_Ntk_t_, ptr %50, i32 0, i32 11
  %52 = load ptr, ptr %51, align 8, !tbaa !49
  %53 = load i32, ptr %9, align 4, !tbaa !8
  %54 = call ptr @Vec_WrdEntryP(ptr noundef %52, i32 noundef %53)
  br label %56

55:                                               ; preds = %38
  br label %56

56:                                               ; preds = %55, %49
  %57 = phi ptr [ %54, %49 ], [ null, %55 ]
  store ptr %57, ptr %10, align 8, !tbaa !19
  %58 = load i64, ptr %6, align 8, !tbaa !17
  %59 = load ptr, ptr %10, align 8, !tbaa !19
  %60 = load ptr, ptr %2, align 8, !tbaa !35
  %61 = load i32, ptr %7, align 4, !tbaa !8
  %62 = call i32 @Sfm_ObjFaninNum(ptr noundef %60, i32 noundef %61)
  %63 = load ptr, ptr %2, align 8, !tbaa !35
  %64 = getelementptr inbounds nuw %struct.Sfm_Ntk_t_, ptr %63, i32 0, i32 19
  %65 = load ptr, ptr %64, align 8, !tbaa !50
  %66 = load ptr, ptr %4, align 8, !tbaa !3
  %67 = call i32 @Sfm_TruthToCnf(i64 noundef %58, ptr noundef %59, i32 noundef %62, ptr noundef %65, ptr noundef %66)
  store i32 %67, ptr %8, align 4, !tbaa !8
  %68 = load ptr, ptr %3, align 8, !tbaa !44
  %69 = load i32, ptr %7, align 4, !tbaa !8
  %70 = call ptr @Vec_WecEntry(ptr noundef %68, i32 noundef %69)
  store ptr %70, ptr %5, align 8, !tbaa !3
  %71 = load ptr, ptr %5, align 8, !tbaa !3
  %72 = load ptr, ptr %4, align 8, !tbaa !3
  %73 = call i32 @Vec_StrSize(ptr noundef %72)
  call void @Vec_StrGrow(ptr noundef %71, i32 noundef %73)
  %74 = load ptr, ptr %5, align 8, !tbaa !3
  %75 = call ptr @Vec_StrArray(ptr noundef %74)
  %76 = load ptr, ptr %4, align 8, !tbaa !3
  %77 = call ptr @Vec_StrArray(ptr noundef %76)
  %78 = load ptr, ptr %4, align 8, !tbaa !3
  %79 = call i32 @Vec_StrSize(ptr noundef %78)
  %80 = sext i32 %79 to i64
  call void @llvm.memcpy.p0.p0.i64(ptr align 1 %75, ptr align 1 %77, i64 %80, i1 false)
  %81 = load ptr, ptr %4, align 8, !tbaa !3
  %82 = call i32 @Vec_StrSize(ptr noundef %81)
  %83 = load ptr, ptr %5, align 8, !tbaa !3
  %84 = getelementptr inbounds nuw %struct.Vec_Str_t_, ptr %83, i32 0, i32 1
  store i32 %82, ptr %84, align 4, !tbaa !13
  call void @llvm.lifetime.end.p0(i64 8, ptr %10) #10
  call void @llvm.lifetime.end.p0(i64 4, ptr %9) #10
  br label %85

85:                                               ; preds = %56
  %86 = load i32, ptr %7, align 4, !tbaa !8
  %87 = add nsw i32 %86, 1
  store i32 %87, ptr %7, align 4, !tbaa !8
  br label %19, !llvm.loop !51

88:                                               ; preds = %36
  %89 = load ptr, ptr %4, align 8, !tbaa !3
  call void @Vec_StrFree(ptr noundef %89)
  %90 = load ptr, ptr %3, align 8, !tbaa !44
  call void @llvm.lifetime.end.p0(i64 4, ptr %8) #10
  call void @llvm.lifetime.end.p0(i64 4, ptr %7) #10
  call void @llvm.lifetime.end.p0(i64 8, ptr %6) #10
  call void @llvm.lifetime.end.p0(i64 8, ptr %5) #10
  call void @llvm.lifetime.end.p0(i64 8, ptr %4) #10
  call void @llvm.lifetime.end.p0(i64 8, ptr %3) #10
  ret ptr %90
}