; Function Attrs: nounwind uwtable
define noalias noundef ptr @Sfm_CreateCnf(ptr noundef readonly captures(none) %0) local_unnamed_addr #2 {
  %2 = tail call noalias dereferenceable_or_null(16) ptr @malloc(i64 noundef 16) #12
  %3 = getelementptr inbounds nuw i8, ptr %2, i64 4
  store i32 0, ptr %3, align 4, !tbaa !3
  store i32 100, ptr %2, align 8, !tbaa !16
  %4 = tail call noalias dereferenceable_or_null(100) ptr @malloc(i64 noundef 100) #12
  %5 = getelementptr inbounds nuw i8, ptr %2, i64 8
  store ptr %4, ptr %5, align 8, !tbaa !10
  %6 = getelementptr inbounds nuw i8, ptr %0, i64 20
  %7 = load i32, ptr %6, align 4, !tbaa !29
  %8 = tail call noalias dereferenceable_or_null(16) ptr @malloc(i64 noundef 16) #12
  %9 = add i32 %7, -1
  %or.cond.i.i = icmp ult i32 %9, 7
  %spec.store.select.i.i = select i1 %or.cond.i.i, i32 8, i32 %7
  store i32 %spec.store.select.i.i, ptr %8, align 8, !tbaa !38
  %.not.i.i = icmp eq i32 %spec.store.select.i.i, 0
  br i1 %.not.i.i, label %Vec_WecStart.exit, label %10

10:                                               ; preds = %1
  %11 = sext i32 %spec.store.select.i.i to i64
  %12 = tail call noalias ptr @calloc(i64 noundef %11, i64 noundef 16) #14
  br label %Vec_WecStart.exit

Vec_WecStart.exit:                                ; preds = %1, %10
  %13 = phi ptr [ %12, %10 ], [ null, %1 ]
  %14 = getelementptr inbounds nuw i8, ptr %8, i64 4
  %15 = getelementptr inbounds nuw i8, ptr %8, i64 8
  store ptr %13, ptr %15, align 8, !tbaa !39
  store i32 %7, ptr %14, align 4, !tbaa !40
  %16 = getelementptr inbounds nuw i8, ptr %0, i64 8
  %17 = load i32, ptr %16, align 8, !tbaa !41
  %18 = getelementptr inbounds nuw i8, ptr %0, i64 48
  %19 = getelementptr inbounds nuw i8, ptr %0, i64 12
  %20 = load ptr, ptr %18, align 8, !tbaa !42
  %21 = getelementptr i8, ptr %20, i64 4
  %.val3241 = load i32, ptr %21, align 4, !tbaa !43
  %22 = load i32, ptr %19, align 4, !tbaa !46
  %23 = sub nsw i32 %.val3241, %22
  %24 = icmp slt i32 %17, %23
  br i1 %24, label %.lr.ph, label %.critedge

.lr.ph:                                           ; preds = %Vec_WecStart.exit
  %25 = getelementptr inbounds nuw i8, ptr %0, i64 80
  %26 = getelementptr inbounds nuw i8, ptr %0, i64 72
  %27 = getelementptr i8, ptr %0, i64 64
  %28 = getelementptr inbounds nuw i8, ptr %0, i64 192
  %29 = sext i32 %17 to i64
  br label %30

30:                                               ; preds = %.lr.ph, %Vec_StrGrow.exit
  %indvars.iv = phi i64 [ %29, %.lr.ph ], [ %indvars.iv.next, %Vec_StrGrow.exit ]
  %31 = phi ptr [ %20, %.lr.ph ], [ %64, %Vec_StrGrow.exit ]
  %32 = getelementptr i8, ptr %31, i64 8
  %.val34 = load ptr, ptr %32, align 8, !tbaa !47
  %33 = getelementptr inbounds i64, ptr %.val34, i64 %indvars.iv
  %34 = load i64, ptr %33, align 8, !tbaa !14
  %35 = load ptr, ptr %25, align 8, !tbaa !48
  %36 = getelementptr i8, ptr %35, i64 4
  %.val33 = load i32, ptr %36, align 4, !tbaa !43
  %.not = icmp eq i32 %.val33, 0
  br i1 %.not, label %45, label %37

37:                                               ; preds = %30
  %38 = load ptr, ptr %26, align 8, !tbaa !49
  %39 = getelementptr i8, ptr %38, i64 8
  %.val31 = load ptr, ptr %39, align 8, !tbaa !24
  %40 = getelementptr inbounds i32, ptr %.val31, i64 %indvars.iv
  %41 = load i32, ptr %40, align 4, !tbaa !25
  %42 = getelementptr i8, ptr %35, i64 8
  %.val35 = load ptr, ptr %42, align 8, !tbaa !47
  %43 = sext i32 %41 to i64
  %44 = getelementptr inbounds i64, ptr %.val35, i64 %43
  br label %45

45:                                               ; preds = %30, %37
  %46 = phi ptr [ %44, %37 ], [ null, %30 ]
  %.val37 = load ptr, ptr %27, align 8, !tbaa !39
  %47 = getelementptr %struct.Vec_Int_t_, ptr %.val37, i64 %indvars.iv, i32 1
  %.val.i = load i32, ptr %47, align 4, !tbaa !21
  %48 = load ptr, ptr %28, align 8, !tbaa !50
  %49 = tail call i32 @Sfm_TruthToCnf(i64 noundef %34, ptr noundef %46, i32 noundef %.val.i, ptr noundef %48, ptr noundef nonnull %2)
  %50 = getelementptr inbounds %struct.Vec_Int_t_, ptr %13, i64 %indvars.iv
  %.val30 = load i32, ptr %3, align 4, !tbaa !3
  %51 = load i32, ptr %50, align 8, !tbaa !16
  %.not.i = icmp slt i32 %51, %.val30
  %52 = getelementptr i8, ptr %50, i64 8
  %53 = load ptr, ptr %52, align 8, !tbaa !10
  br i1 %.not.i, label %54, label %Vec_StrGrow.exit

54:                                               ; preds = %45
  %.not9.i = icmp eq ptr %53, null
  %55 = sext i32 %.val30 to i64
  br i1 %.not9.i, label %58, label %56

56:                                               ; preds = %54
  %57 = tail call ptr @realloc(ptr noundef nonnull %53, i64 noundef %55) #11
  %.val29.pre.pre = load i32, ptr %3, align 4, !tbaa !3
  br label %60

58:                                               ; preds = %54
  %59 = tail call noalias ptr @malloc(i64 noundef %55) #12
  br label %60

60:                                               ; preds = %58, %56
  %.val29.pre = phi i32 [ %.val29.pre.pre, %56 ], [ %.val30, %58 ]
  %61 = phi ptr [ %57, %56 ], [ %59, %58 ]
  store ptr %61, ptr %52, align 8, !tbaa !10
  store i32 %.val30, ptr %50, align 8, !tbaa !16
  br label %Vec_StrGrow.exit

Vec_StrGrow.exit:                                 ; preds = %45, %60
  %.val29 = phi i32 [ %.val29.pre, %60 ], [ %.val30, %45 ]
  %.val38 = phi ptr [ %61, %60 ], [ %53, %45 ]
  %.val39 = load ptr, ptr %5, align 8, !tbaa !10
  %62 = sext i32 %.val29 to i64
  tail call void @llvm.memcpy.p0.p0.i64(ptr align 1 %.val38, ptr align 1 %.val39, i64 %62, i1 false)
  %.val = load i32, ptr %3, align 4, !tbaa !3
  %63 = getelementptr inbounds nuw i8, ptr %50, i64 4
  store i32 %.val, ptr %63, align 4, !tbaa !3
  %indvars.iv.next = add nsw i64 %indvars.iv, 1
  %64 = load ptr, ptr %18, align 8, !tbaa !42
  %65 = getelementptr i8, ptr %64, i64 4
  %.val32 = load i32, ptr %65, align 4, !tbaa !43
  %66 = load i32, ptr %19, align 4, !tbaa !46
  %67 = sub nsw i32 %.val32, %66
  %68 = sext i32 %67 to i64
  %69 = icmp slt i64 %indvars.iv.next, %68
  br i1 %69, label %30, label %.critedge.loopexit, !llvm.loop !51

.critedge.loopexit:                               ; preds = %Vec_StrGrow.exit
  %.pre = load ptr, ptr %5, align 8, !tbaa !10
  br label %.critedge

.critedge:                                        ; preds = %.critedge.loopexit, %Vec_WecStart.exit
  %70 = phi ptr [ %.pre, %.critedge.loopexit ], [ %4, %Vec_WecStart.exit ]
  %.not.i40 = icmp eq ptr %70, null
  br i1 %.not.i40, label %Vec_StrFree.exit, label %71

71:                                               ; preds = %.critedge
  tail call void @free(ptr noundef nonnull %70) #13
  br label %Vec_StrFree.exit

Vec_StrFree.exit:                                 ; preds = %.critedge, %71
  tail call void @free(ptr noundef nonnull %2) #13
  ret ptr %8
}